; Function Attrs: nounwind sspstrong uwtable
define dso_local noundef zeroext i1 @qnum_get_try_uint(ptr noundef readonly captures(none) %qn, ptr noundef writeonly captures(none) %val) local_unnamed_addr #0 {
entry:
  %kind = getelementptr inbounds nuw i8, ptr %qn, i64 16
  %0 = load i32, ptr %kind, align 8
  switch i32 %0, label %sw.epilog [
    i32 0, label %sw.bb
    i32 1, label %sw.bb2
    i32 2, label %return
  ]

sw.bb:                                            ; preds = %entry
  %u = getelementptr inbounds nuw i8, ptr %qn, i64 24
  %1 = load i64, ptr %u, align 8
  %cmp = icmp slt i64 %1, 0
  br i1 %cmp, label %return, label %return.sink.split

sw.bb2:                                           ; preds = %entry
  %u3 = getelementptr inbounds nuw i8, ptr %qn, i64 24
  %2 = load i64, ptr %u3, align 8
  br label %return.sink.split

sw.epilog:                                        ; preds = %entry
  tail call void @__assert_fail(ptr noundef nonnull @.str, ptr noundef nonnull @.str.1, i32 noundef 126, ptr noundef nonnull @__PRETTY_FUNCTION__.qnum_get_try_uint) #6
  unreachable

return.sink.split:                                ; preds = %sw.bb, %sw.bb2
  %.sink = phi i64 [ %2, %sw.bb2 ], [ %1, %sw.bb ]
  store i64 %.sink, ptr %val, align 8
  br label %return

return:                                           ; preds = %return.sink.split, %entry, %sw.bb
  %retval.0 = phi i1 [ false, %sw.bb ], [ false, %entry ], [ true, %return.sink.split ]
  ret i1 %retval.0
}